; ModuleID = '37/938.c'
source_filename = "37/938.c"
target datalayout = "e-m:e-p270:32:32-p271:32:32-p272:64:64-i64:64-f80:128-n8:16:32:64-S128"
target triple = "x86_64-pc-linux-gnu"

@.str = private unnamed_addr constant [4 x i8] c"%d\0A\00", align 1
@.str.1 = private unnamed_addr constant [4 x i8] c"no\0A\00", align 1
@.str.2 = private unnamed_addr constant [4 x i8] c"%c\0A\00", align 1

; Function Attrs: noinline nounwind uwtable
define dso_local i32 @main(i32 %0, i8** %1) #0 {
  %3 = alloca i32, align 4
  %4 = alloca i32, align 4
  %5 = alloca i8**, align 8
  %6 = alloca i32, align 4
  %7 = alloca i32, align 4
  %8 = alloca i32, align 4
  %9 = alloca i32, align 4
  %10 = alloca i32, align 4
  %11 = alloca [100000 x i8], align 16
  %12 = alloca i32, align 4
  %13 = alloca i32, align 4
  %14 = alloca i32, align 4
  store i32 0, i32* %3, align 4
  store i32 %0, i32* %4, align 4
  store i8** %1, i8*** %5, align 8
  %15 = call i32 (i8*, ...) @__isoc99_scanf(i8* getelementptr inbounds ([4 x i8], [4 x i8]* @.str, i64 0, i64 0), i32* %10)
  store i32 0, i32* %6, align 4
  br label %16

16:                                               ; preds = %118, %2
  %17 = load i32, i32* %6, align 4
  %18 = load i32, i32* %10, align 4
  %19 = icmp slt i32 %17, %18
  br i1 %19, label %20, label %121

20:                                               ; preds = %16
  %21 = getelementptr inbounds [100000 x i8], [100000 x i8]* %11, i64 0, i64 0
  %22 = call i32 (i8*, ...) bitcast (i32 (...)* @gets to i32 (i8*, ...)*)(i8* %21)
  %23 = getelementptr inbounds [100000 x i8], [100000 x i8]* %11, i64 0, i64 0
  %24 = call i64 @strlen(i8* %23) #3
  %25 = trunc i64 %24 to i32
  store i32 %25, i32* %12, align 4
  store i32 0, i32* %13, align 4
  store i32 0, i32* %7, align 4
  br label %26

26:                                               ; preds = %63, %20
  %27 = load i32, i32* %7, align 4
  %28 = load i32, i32* %12, align 4
  %29 = icmp slt i32 %27, %28
  br i1 %29, label %30, label %66

30:                                               ; preds = %26
  store i32 0, i32* %14, align 4
  store i32 0, i32* %8, align 4
  br label %31

31:                                               ; preds = %51, %30
  %32 = load i32, i32* %8, align 4
  %33 = load i32, i32* %12, align 4
  %34 = icmp slt i32 %32, %33
  br i1 %34, label %35, label %54

35:                                               ; preds = %31
  %36 = load i32, i32* %7, align 4
  %37 = sext i32 %36 to i64
  %38 = getelementptr inbounds [100000 x i8], [100000 x i8]* %11, i64 0, i64 %37
  %39 = load i8, i8* %38, align 1
  %40 = sext i8 %39 to i32
  %41 = load i32, i32* %8, align 4
  %42 = sext i32 %41 to i64
  %43 = getelementptr inbounds [100000 x i8], [100000 x i8]* %11, i64 0, i64 %42
  %44 = load i8, i8* %43, align 1
  %45 = sext i8 %44 to i32
  %46 = icmp ne i32 %40, %45
  br i1 %46, label %47, label %50

47:                                               ; preds = %35
  %48 = load i32, i32* %14, align 4
  %49 = add nsw i32 %48, 1
  store i32 %49, i32* %14, align 4
  br label %50

50:                                               ; preds = %47, %35
  br label %51

51:                                               ; preds = %50
  %52 = load i32, i32* %8, align 4
  %53 = add nsw i32 %52, 1
  store i32 %53, i32* %8, align 4
  br label %31

54:                                               ; preds = %31
  %55 = load i32, i32* %14, align 4
  %56 = load i32, i32* %12, align 4
  %57 = sub nsw i32 %56, 1
  %58 = icmp eq i32 %55, %57
  br i1 %58, label %59, label %62

59:                                               ; preds = %54
  %60 = load i32, i32* %13, align 4
  %61 = add nsw i32 %60, 1
  store i32 %61, i32* %13, align 4
  br label %62

62:                                               ; preds = %59, %54
  br label %63

63:                                               ; preds = %62
  %64 = load i32, i32* %7, align 4
  %65 = add nsw i32 %64, 1
  store i32 %65, i32* %7, align 4
  br label %26

66:                                               ; preds = %26
  %67 = load i32, i32* %13, align 4
  %68 = icmp eq i32 %67, 0
  br i1 %68, label %69, label %71

69:                                               ; preds = %66
  %70 = call i32 (i8*, ...) @printf(i8* getelementptr inbounds ([4 x i8], [4 x i8]* @.str.1, i64 0, i64 0))
  br label %117

71:                                               ; preds = %66
  store i32 0, i32* %7, align 4
  br label %72

72:                                               ; preds = %113, %71
  %73 = load i32, i32* %7, align 4
  %74 = load i32, i32* %12, align 4
  %75 = icmp slt i32 %73, %74
  br i1 %75, label %76, label %116

76:                                               ; preds = %72
  store i32 0, i32* %9, align 4
  store i32 0, i32* %8, align 4
  br label %77

77:                                               ; preds = %97, %76
  %78 = load i32, i32* %8, align 4
  %79 = load i32, i32* %12, align 4
  %80 = icmp slt i32 %78, %79
  br i1 %80, label %81, label %100

81:                                               ; preds = %77
  %82 = load i32, i32* %7, align 4
  %83 = sext i32 %82 to i64
  %84 = getelementptr inbounds [100000 x i8], [100000 x i8]* %11, i64 0, i64 %83
  %85 = load i8, i8* %84, align 1
  %86 = sext i8 %85 to i32
  %87 = load i32, i32* %8, align 4
  %88 = sext i32 %87 to i64
  %89 = getelementptr inbounds [100000 x i8], [100000 x i8]* %11, i64 0, i64 %88
  %90 = load i8, i8* %89, align 1
  %91 = sext i8 %90 to i32
  %92 = icmp ne i32 %86, %91
  br i1 %92, label %93, label %96

93:                                               ; preds = %81
  %94 = load i32, i32* %9, align 4
  %95 = add nsw i32 %94, 1
  store i32 %95, i32* %9, align 4
  br label %96

96:                                               ; preds = %93, %81
  br label %97

97:                                               ; preds = %96
  %98 = load i32, i32* %8, align 4
  %99 = add nsw i32 %98, 1
  store i32 %99, i32* %8, align 4
  br label %77

100:                                              ; preds = %77
  %101 = load i32, i32* %9, align 4
  %102 = load i32, i32* %12, align 4
  %103 = sub nsw i32 %102, 1
  %104 = icmp eq i32 %101, %103
  br i1 %104, label %105, label %112

105:                                              ; preds = %100
  %106 = load i32, i32* %7, align 4
  %107 = sext i32 %106 to i64
  %108 = getelementptr inbounds [100000 x i8], [100000 x i8]* %11, i64 0, i64 %107
  %109 = load i8, i8* %108, align 1
  %110 = sext i8 %109 to i32
  %111 = call i32 (i8*, ...) @printf(i8* getelementptr inbounds ([4 x i8], [4 x i8]* @.str.2, i64 0, i64 0), i32 %110)
  br label %116

112:                                              ; preds = %100
  br label %113

113:                                              ; preds = %112
  %114 = load i32, i32* %7, align 4
  %115 = add nsw i32 %114, 1
  store i32 %115, i32* %7, align 4
  br label %72

116:                                              ; preds = %105, %72
  br label %117

117:                                              ; preds = %116, %69
  br label %118

118:                                              ; preds = %117
  %119 = load i32, i32* %6, align 4
  %120 = add nsw i32 %119, 1
  store i32 %120, i32* %6, align 4
  br label %16

121:                                              ; preds = %16
  ret i32 0
}

declare dso_local i32 @__isoc99_scanf(i8*, ...) #1

declare dso_local i32 @gets(...) #1

; Function Attrs: nounwind readonly
declare dso_local i64 @strlen(i8*) #2

declare dso_local i32 @printf(i8*, ...) #1


!llvm.module.flags = !{!0}
!llvm.ident = !{!1}

!0 = !{i32 1, !"wchar_size", i32 4}
!1 = !{!"clang version 10.0.0-4ubuntu1 "}
